target datalayout = "e-m:e-p270:32:32-p271:32:32-p272:64:64-i64:64-i128:128-f80:128-n8:16:32:64-S128"
target triple = "x86_64-pc-linux-gnu"

%"class.cv::(anonymous namespace)::ufixedpoint32" = type { i32 }

; Function Attrs: alwaysinline mustprogress nounwind uwtable
define internal noundef nonnull align 4 dereferenceable(4) ptr @_ZN2cv12_GLOBAL__N_113ufixedpoint32aSERKt(ptr noundef nonnull align 4 dereferenceable(4) %0, ptr noundef nonnull align 2 dereferenceable(2) %1) #17 align 2 {
  %3 = alloca ptr, align 8
  %4 = alloca ptr, align 8
  store ptr %0, ptr %3, align 8, !tbaa !343
  store ptr %1, ptr %4, align 8, !tbaa !8
  %5 = load ptr, ptr %3, align 8
  %6 = load ptr, ptr %4, align 8, !tbaa !8
  %7 = load i16, ptr %6, align 2, !tbaa !236
  %8 = zext i16 %7 to i32
  %9 = shl i32 %8, 16
  %10 = getelementptr inbounds nuw %"class.cv::(anonymous namespace)::ufixedpoint32", ptr %5, i32 0, i32 0
  store i32 %9, ptr %10, align 4, !tbaa !344
  ret ptr %5
}

; Function Attrs: mustprogress uwtable
define internal void @_ZN2cv12cpu_baseline12_GLOBAL__N_114hlineSmooth1N1ItNS_12_GLOBAL__N_113ufixedpoint32EEEvPKT_iPKT0_iPS8_ii(ptr noundef %0, i32 noundef %1, ptr noundef %2, i32 noundef %3, ptr noundef %4, i32 noundef %5, i32 noundef %6) #4 {
  %8 = alloca ptr, align 8
  %9 = alloca i32, align 4
  %10 = alloca ptr, align 8
  %11 = alloca i32, align 4
  %12 = alloca ptr, align 8
  %13 = alloca i32, align 4
  %14 = alloca i32, align 4
  %15 = alloca i32, align 4
  store ptr %0, ptr %8, align 8, !tbaa !8
  store i32 %1, ptr %9, align 4, !tbaa !10
  store ptr %2, ptr %10, align 8, !tbaa !343
  store i32 %3, ptr %11, align 4, !tbaa !10
  store ptr %4, ptr %12, align 8, !tbaa !343
  store i32 %5, ptr %13, align 4, !tbaa !10
  store i32 %6, ptr %14, align 4, !tbaa !10
  call void @llvm.lifetime.start.p0(i64 4, ptr %15) #3
  store i32 0, ptr %15, align 4, !tbaa !10
  br label %16

16:                                               ; preds = %27, %7
  %17 = load i32, ptr %15, align 4, !tbaa !10
  %18 = load i32, ptr %13, align 4, !tbaa !10
  %19 = load i32, ptr %9, align 4, !tbaa !10
  %20 = mul nsw i32 %18, %19
  %21 = icmp slt i32 %17, %20
  br i1 %21, label %23, label %22

22:                                               ; preds = %16
  call void @llvm.lifetime.end.p0(i64 4, ptr %15) #3
  br label %34

23:                                               ; preds = %16
  %24 = load ptr, ptr %8, align 8, !tbaa !8
  %25 = load ptr, ptr %12, align 8, !tbaa !343
  %26 = call noundef nonnull align 4 dereferenceable(4) ptr @_ZN2cv12_GLOBAL__N_113ufixedpoint32aSERKt(ptr noundef nonnull align 4 dereferenceable(4) %25, ptr noundef nonnull align 2 dereferenceable(2) %24)
  br label %27

27:                                               ; preds = %23
  %28 = load i32, ptr %15, align 4, !tbaa !10
  %29 = add nsw i32 %28, 1
  store i32 %29, ptr %15, align 4, !tbaa !10
  %30 = load ptr, ptr %8, align 8, !tbaa !8
  %31 = getelementptr inbounds nuw i16, ptr %30, i32 1
  store ptr %31, ptr %8, align 8, !tbaa !8
  %32 = load ptr, ptr %12, align 8, !tbaa !343
  %33 = getelementptr inbounds nuw %"class.cv::(anonymous namespace)::ufixedpoint32", ptr %32, i32 1
  store ptr %33, ptr %12, align 8, !tbaa !343
  br label %16, !llvm.loop !375

34:                                               ; preds = %22
  ret void
}