; Function Attrs: mustprogress nofree norecurse nosync nounwind memory(argmem: readwrite) uwtable
define internal void @_ZN2cv12cpu_baseline12_GLOBAL__N_114hlineSmooth1N1ItNS_12_GLOBAL__N_113ufixedpoint32EEEvPKT_iPKT0_iPS8_ii(ptr noundef readonly captures(none) %0, i32 noundef %1, ptr readnone captures(none) %2, i32 %3, ptr noundef writeonly captures(none) %4, i32 noundef %5, i32 %6) #16 {
  %8 = mul nsw i32 %5, %1
  %9 = icmp sgt i32 %8, 0
  br i1 %9, label %.lr.ph, label %._crit_edge

._crit_edge:                                      ; preds = %.lr.ph, %7
  ret void

.lr.ph:                                           ; preds = %7, %.lr.ph
  %.011 = phi i32 [ %13, %.lr.ph ], [ 0, %7 ]
  %.0710 = phi ptr [ %14, %.lr.ph ], [ %0, %7 ]
  %.089 = phi ptr [ %15, %.lr.ph ], [ %4, %7 ]
  %10 = load i16, ptr %.0710, align 2, !tbaa !400
  %11 = zext i16 %10 to i32
  %12 = shl nuw i32 %11, 16
  store i32 %12, ptr %.089, align 4, !tbaa !73
  %13 = add nuw nsw i32 %.011, 1
  %14 = getelementptr inbounds nuw i8, ptr %.0710, i64 2
  %15 = getelementptr inbounds nuw i8, ptr %.089, i64 4
  %exitcond.not = icmp eq i32 %13, %8
  br i1 %exitcond.not, label %._crit_edge, label %.lr.ph, !llvm.loop !1125
}